target datalayout = "e-m:e-p270:32:32-p271:32:32-p272:64:64-i64:64-i128:128-f80:128-n8:16:32:64-S128"
target triple = "x86_64-unknown-linux-gnu"

%"union.std::aligned_storage<32, 16>::type" = type { [32 x i8] }
%"class.proxygen::HPACKContext" = type <{ %"class.proxygen::HeaderTable", i32, [4 x i8] }>
%"class.proxygen::HeaderTable" = type { ptr, i32, i32, %"class.std::vector", i32, i32, i32, i8, %"class.folly::F14FastMap" }
%"class.std::vector" = type { %"struct.std::_Vector_base" }
%"struct.std::_Vector_base" = type { %"struct.std::_Vector_base<proxygen::HPACKHeader, std::allocator<proxygen::HPACKHeader>>::_Vector_impl" }
%"struct.std::_Vector_base<proxygen::HPACKHeader, std::allocator<proxygen::HPACKHeader>>::_Vector_impl" = type { %"struct.std::_Vector_base<proxygen::HPACKHeader, std::allocator<proxygen::HPACKHeader>>::_Vector_impl_data" }
%"struct.std::_Vector_base<proxygen::HPACKHeader, std::allocator<proxygen::HPACKHeader>>::_Vector_impl_data" = type { ptr, ptr, ptr }
%"class.folly::F14FastMap" = type { %"class.folly::f14::detail::F14VectorMapImpl" }
%"class.folly::f14::detail::F14VectorMapImpl" = type { %"class.folly::f14::detail::F14BasicMap" }
%"class.folly::f14::detail::F14BasicMap" = type { %"class.folly::f14::detail::F14Table" }
%"class.folly::f14::detail::F14Table" = type { %"class.folly::f14::detail::VectorContainerPolicy", ptr, %"struct.folly::f14::detail::SizeAndChunkShiftAndPackedBegin" }
%"class.folly::f14::detail::VectorContainerPolicy" = type { ptr }
%"struct.folly::f14::detail::SizeAndChunkShiftAndPackedBegin" = type { %"struct.folly::f14::detail::PackedSizeAndChunkShift" }
%"struct.folly::f14::detail::PackedSizeAndChunkShift" = type { i64 }
%"struct.folly::HeterogeneousAccessHash" = type { i8 }
%"struct.folly::HeterogeneousAccessEqualTo" = type { i8 }
%"class.std::allocator.2" = type { i8 }

@_ZTVN8proxygen11HeaderTableE = external unnamed_addr constant { [11 x ptr] }, align 8
@_ZN5folly3f146detail15kEmptyTagVectorE = external global %"union.std::aligned_storage<32, 16>::type", align 16

; Function Attrs: mustprogress nounwind uwtable
define linkonce_odr void @_ZNSt15__new_allocatorISt4pairIKN8proxygen15HPACKHeaderNameENSt7__cxx114listIjSaIjEEEEEC2ERKS9_(ptr noundef nonnull align 1 dereferenceable(1) %this, ptr noundef nonnull align 1 dereferenceable(1) %0) unnamed_addr #5 comdat align 2 {
entry:
  %this.addr = alloca ptr, align 8
  %.addr = alloca ptr, align 8
  store ptr %this, ptr %this.addr, align 8
  store ptr %0, ptr %.addr, align 8
  ret void
}

; Function Attrs: mustprogress nounwind uwtable
define linkonce_odr void @_ZNSaISt4pairIKN8proxygen15HPACKHeaderNameENSt7__cxx114listIjSaIjEEEEEC2ERKS8_(ptr noundef nonnull align 1 dereferenceable(1) %this, ptr noundef nonnull align 1 dereferenceable(1) %__a) unnamed_addr #5 comdat align 2 {
entry:
  %this.addr = alloca ptr, align 8
  %__a.addr = alloca ptr, align 8
  store ptr %this, ptr %this.addr, align 8
  store ptr %__a, ptr %__a.addr, align 8
  %this1 = load ptr, ptr %this.addr, align 8
  %0 = load ptr, ptr %__a.addr, align 8
  call void @_ZNSt15__new_allocatorISt4pairIKN8proxygen15HPACKHeaderNameENSt7__cxx114listIjSaIjEEEEEC2ERKS9_(ptr noundef nonnull align 1 dereferenceable(1) %this1, ptr noundef nonnull align 1 dereferenceable(1) %0) #3
  ret void
}

; Function Attrs: mustprogress nounwind uwtable
define linkonce_odr void @_ZN5folly3f146detail12ObjectHolderILc65ESaISt4pairIKN8proxygen15HPACKHeaderNameENSt7__cxx114listIjSaIjEEEEELb1EEC2IJRKSC_EEEDpOT_(ptr noundef nonnull align 1 dereferenceable(1) %this, ptr noundef nonnull align 1 dereferenceable(1) %args) unnamed_addr #5 comdat align 2 {
entry:
  %this.addr = alloca ptr, align 8
  %args.addr = alloca ptr, align 8
  store ptr %this, ptr %this.addr, align 8
  store ptr %args, ptr %args.addr, align 8
  %this1 = load ptr, ptr %this.addr, align 8
  %0 = load ptr, ptr %args.addr, align 8
  call void @_ZNSaISt4pairIKN8proxygen15HPACKHeaderNameENSt7__cxx114listIjSaIjEEEEEC2ERKS8_(ptr noundef nonnull align 1 dereferenceable(1) %this1, ptr noundef nonnull align 1 dereferenceable(1) %0) #3
  ret void
}

; Function Attrs: mustprogress nounwind uwtable
define linkonce_odr void @_ZN5folly3f146detail12ObjectHolderILc69ENS_26HeterogeneousAccessEqualToIN8proxygen15HPACKHeaderNameEvEELb1EEC2IJRKS6_EEEDpOT_(ptr noundef nonnull align 1 dereferenceable(1) %this, ptr noundef nonnull align 1 dereferenceable(1) %args) unnamed_addr #5 comdat align 2 {
entry:
  %this.addr = alloca ptr, align 8
  %args.addr = alloca ptr, align 8
  store ptr %this, ptr %this.addr, align 8
  store ptr %args, ptr %args.addr, align 8
  ret void
}

; Function Attrs: mustprogress nounwind uwtable
define linkonce_odr void @_ZN5folly3f146detail12ObjectHolderILc72ENS_23HeterogeneousAccessHashIN8proxygen15HPACKHeaderNameEvEELb1EEC2IJRKS6_EEEDpOT_(ptr noundef nonnull align 1 dereferenceable(1) %this, ptr noundef nonnull align 1 dereferenceable(1) %args) unnamed_addr #5 comdat align 2 {
entry:
  %this.addr = alloca ptr, align 8
  %args.addr = alloca ptr, align 8
  store ptr %this, ptr %this.addr, align 8
  store ptr %args, ptr %args.addr, align 8
  ret void
}

; Function Attrs: mustprogress nounwind uwtable
define linkonce_odr void @_ZN5folly3f146detail23PackedSizeAndChunkShiftC2Ev(ptr noundef nonnull align 8 dereferenceable(8) %this) unnamed_addr #5 comdat align 2 {
entry:
  %this.addr = alloca ptr, align 8
  store ptr %this, ptr %this.addr, align 8
  %this1 = load ptr, ptr %this.addr, align 8
  %packedSizeAndChunkShift_ = getelementptr inbounds %"struct.folly::f14::detail::PackedSizeAndChunkShift", ptr %this1, i32 0, i32 0
  store i64 0, ptr %packedSizeAndChunkShift_, align 8
  ret void
}

; Function Attrs: mustprogress nounwind uwtable
define linkonce_odr void @_ZNSt15__new_allocatorISt4pairIKN8proxygen15HPACKHeaderNameENSt7__cxx114listIjSaIjEEEEED2Ev(ptr noundef nonnull align 1 dereferenceable(1) %this) unnamed_addr #5 comdat align 2 {
entry:
  %this.addr = alloca ptr, align 8
  store ptr %this, ptr %this.addr, align 8
  ret void
}

; Function Attrs: mustprogress uwtable
define linkonce_odr void @_ZN5folly3f146detail10BasePolicyIN8proxygen15HPACKHeaderNameENSt7__cxx114listIjSaIjEEEvvvjEC2ERKNS_23HeterogeneousAccessHashIS4_vEERKNS_26HeterogeneousAccessEqualToIS4_vEERKSaISt4pairIKS4_S8_EE(ptr noundef nonnull align 1 dereferenceable(1) %this, ptr noundef nonnull align 1 dereferenceable(1) %hasher, ptr noundef nonnull align 1 dereferenceable(1) %keyEqual, ptr noundef nonnull align 1 dereferenceable(1) %alloc) unnamed_addr #4 comdat align 2 {
entry:
  %this.addr = alloca ptr, align 8
  %hasher.addr = alloca ptr, align 8
  %keyEqual.addr = alloca ptr, align 8
  %alloc.addr = alloca ptr, align 8
  store ptr %this, ptr %this.addr, align 8
  store ptr %hasher, ptr %hasher.addr, align 8
  store ptr %keyEqual, ptr %keyEqual.addr, align 8
  store ptr %alloc, ptr %alloc.addr, align 8
  %this1 = load ptr, ptr %this.addr, align 8
  %0 = load ptr, ptr %hasher.addr, align 8
  call void @_ZN5folly3f146detail12ObjectHolderILc72ENS_23HeterogeneousAccessHashIN8proxygen15HPACKHeaderNameEvEELb1EEC2IJRKS6_EEEDpOT_(ptr noundef nonnull align 1 dereferenceable(1) %this1, ptr noundef nonnull align 1 dereferenceable(1) %0)
  %1 = load ptr, ptr %keyEqual.addr, align 8
  call void @_ZN5folly3f146detail12ObjectHolderILc69ENS_26HeterogeneousAccessEqualToIN8proxygen15HPACKHeaderNameEvEELb1EEC2IJRKS6_EEEDpOT_(ptr noundef nonnull align 1 dereferenceable(1) %this1, ptr noundef nonnull align 1 dereferenceable(1) %1)
  %2 = load ptr, ptr %alloc.addr, align 8
  call void @_ZN5folly3f146detail12ObjectHolderILc65ESaISt4pairIKN8proxygen15HPACKHeaderNameENSt7__cxx114listIjSaIjEEEEELb1EEC2IJRKSC_EEEDpOT_(ptr noundef nonnull align 1 dereferenceable(1) %this1, ptr noundef nonnull align 1 dereferenceable(1) %2)
  ret void
}

; Function Attrs: mustprogress nounwind uwtable
define linkonce_odr void @_ZNSt15__new_allocatorISt4pairIKN8proxygen15HPACKHeaderNameENSt7__cxx114listIjSaIjEEEEEC2Ev(ptr noundef nonnull align 1 dereferenceable(1) %this) unnamed_addr #5 comdat align 2 {
entry:
  %this.addr = alloca ptr, align 8
  store ptr %this, ptr %this.addr, align 8
  ret void
}

; Function Attrs: noreturn nounwind uwtable
define linkonce_odr hidden void @__clang_call_terminate(ptr noundef %0) #8 comdat {
  %2 = call ptr @__cxa_begin_catch(ptr %0) #3
  call void @_ZSt9terminatev() #13
  unreachable
}

; Function Attrs: mustprogress nounwind uwtable
define linkonce_odr void @_ZN5folly3f146detail31SizeAndChunkShiftAndPackedBeginINS1_11F14ItemIterIPNS1_8F14ChunkIjEEEELb0EEC2Ev(ptr noundef nonnull align 8 dereferenceable(8) %this) unnamed_addr #5 comdat align 2 {
entry:
  %this.addr = alloca ptr, align 8
  store ptr %this, ptr %this.addr, align 8
  %this1 = load ptr, ptr %this.addr, align 8
  %sizeAndChunkShift_ = getelementptr inbounds %"struct.folly::f14::detail::SizeAndChunkShiftAndPackedBegin", ptr %this1, i32 0, i32 0
  call void @_ZN5folly3f146detail23PackedSizeAndChunkShiftC2Ev(ptr noundef nonnull align 8 dereferenceable(8) %sizeAndChunkShift_) #3
  ret void
}

; Function Attrs: mustprogress nounwind uwtable
define linkonce_odr noundef ptr @_ZN5folly3f146detail8F14ChunkIjE13emptyInstanceEv() #5 comdat align 2 {
entry:
  %raw = alloca ptr, align 8
  %rv = alloca ptr, align 8
  store ptr @_ZN5folly3f146detail15kEmptyTagVectorE, ptr %raw, align 8
  %0 = load ptr, ptr %raw, align 8
  store ptr %0, ptr %rv, align 8
  br label %do.body

do.body:                                          ; preds = %entry
  br label %do.end

do.end:                                           ; preds = %do.body
  %1 = load ptr, ptr %rv, align 8
  ret ptr %1
}

; Function Attrs: mustprogress nounwind uwtable
define linkonce_odr void @_ZNSaISt4pairIKN8proxygen15HPACKHeaderNameENSt7__cxx114listIjSaIjEEEEED2Ev(ptr noundef nonnull align 1 dereferenceable(1) %this) unnamed_addr #5 comdat align 2 {
entry:
  %this.addr = alloca ptr, align 8
  store ptr %this, ptr %this.addr, align 8
  %this1 = load ptr, ptr %this.addr, align 8
  call void @_ZNSt15__new_allocatorISt4pairIKN8proxygen15HPACKHeaderNameENSt7__cxx114listIjSaIjEEEEED2Ev(ptr noundef nonnull align 1 dereferenceable(1) %this1) #3
  ret void
}

; Function Attrs: mustprogress uwtable
define linkonce_odr void @_ZN5folly3f146detail21VectorContainerPolicyIN8proxygen15HPACKHeaderNameENSt7__cxx114listIjSaIjEEEvvvSt17integral_constantIbLb1EEEC2ERKNS_23HeterogeneousAccessHashIS4_vEERKNS_26HeterogeneousAccessEqualToIS4_vEERKSaISt4pairIKS4_S8_EE(ptr noundef nonnull align 8 dereferenceable(8) %this, ptr noundef nonnull align 1 dereferenceable(1) %hasher, ptr noundef nonnull align 1 dereferenceable(1) %keyEqual, ptr noundef nonnull align 1 dereferenceable(1) %alloc) unnamed_addr #4 comdat align 2 {
entry:
  %this.addr = alloca ptr, align 8
  %hasher.addr = alloca ptr, align 8
  %keyEqual.addr = alloca ptr, align 8
  %alloc.addr = alloca ptr, align 8
  store ptr %this, ptr %this.addr, align 8
  store ptr %hasher, ptr %hasher.addr, align 8
  store ptr %keyEqual, ptr %keyEqual.addr, align 8
  store ptr %alloc, ptr %alloc.addr, align 8
  %this1 = load ptr, ptr %this.addr, align 8
  %0 = load ptr, ptr %hasher.addr, align 8
  %1 = load ptr, ptr %keyEqual.addr, align 8
  %2 = load ptr, ptr %alloc.addr, align 8
  call void @_ZN5folly3f146detail10BasePolicyIN8proxygen15HPACKHeaderNameENSt7__cxx114listIjSaIjEEEvvvjEC2ERKNS_23HeterogeneousAccessHashIS4_vEERKNS_26HeterogeneousAccessEqualToIS4_vEERKSaISt4pairIKS4_S8_EE(ptr noundef nonnull align 1 dereferenceable(1) %this1, ptr noundef nonnull align 1 dereferenceable(1) %0, ptr noundef nonnull align 1 dereferenceable(1) %1, ptr noundef nonnull align 1 dereferenceable(1) %2)
  %values_ = getelementptr inbounds %"class.folly::f14::detail::VectorContainerPolicy", ptr %this1, i32 0, i32 0
  store ptr null, ptr %values_, align 8
  ret void
}

; Function Attrs: mustprogress nounwind uwtable
define linkonce_odr void @_ZNSaISt4pairIKN8proxygen15HPACKHeaderNameENSt7__cxx114listIjSaIjEEEEEC2Ev(ptr noundef nonnull align 1 dereferenceable(1) %this) unnamed_addr #5 comdat align 2 {
entry:
  %this.addr = alloca ptr, align 8
  store ptr %this, ptr %this.addr, align 8
  %this1 = load ptr, ptr %this.addr, align 8
  call void @_ZNSt15__new_allocatorISt4pairIKN8proxygen15HPACKHeaderNameENSt7__cxx114listIjSaIjEEEEEC2Ev(ptr noundef nonnull align 1 dereferenceable(1) %this1) #3
  ret void
}

; Function Attrs: mustprogress nounwind uwtable
define linkonce_odr void @_ZNSt15__new_allocatorIN8proxygen11HPACKHeaderEEC2Ev(ptr noundef nonnull align 1 dereferenceable(1) %this) unnamed_addr #5 comdat align 2 {
entry:
  %this.addr = alloca ptr, align 8
  store ptr %this, ptr %this.addr, align 8
  ret void
}

; Function Attrs: mustprogress nounwind uwtable
define linkonce_odr void @_ZN5folly3f146detail8F14TableINS1_21VectorContainerPolicyIN8proxygen15HPACKHeaderNameENSt7__cxx114listIjSaIjEEEvvvSt17integral_constantIbLb1EEEEEC2Ev(ptr noundef nonnull align 8 dereferenceable(24) %this) unnamed_addr #5 comdat align 2 personality ptr @__gxx_personality_v0 {
entry:
  %this.addr = alloca ptr, align 8
  %ref.tmp = alloca %"struct.folly::HeterogeneousAccessHash", align 1
  %ref.tmp2 = alloca %"struct.folly::HeterogeneousAccessEqualTo", align 1
  %ref.tmp3 = alloca %"class.std::allocator.2", align 1
  store ptr %this, ptr %this.addr, align 8
  %this1 = load ptr, ptr %this.addr, align 8
  call void @_ZNSaISt4pairIKN8proxygen15HPACKHeaderNameENSt7__cxx114listIjSaIjEEEEEC2Ev(ptr noundef nonnull align 1 dereferenceable(1) %ref.tmp3) #3
  invoke void @_ZN5folly3f146detail21VectorContainerPolicyIN8proxygen15HPACKHeaderNameENSt7__cxx114listIjSaIjEEEvvvSt17integral_constantIbLb1EEEC2ERKNS_23HeterogeneousAccessHashIS4_vEERKNS_26HeterogeneousAccessEqualToIS4_vEERKSaISt4pairIKS4_S8_EE(ptr noundef nonnull align 8 dereferenceable(8) %this1, ptr noundef nonnull align 1 dereferenceable(1) %ref.tmp, ptr noundef nonnull align 1 dereferenceable(1) %ref.tmp2, ptr noundef nonnull align 1 dereferenceable(1) %ref.tmp3)
          to label %invoke.cont unwind label %terminate.lpad

invoke.cont:                                      ; preds = %entry
  call void @_ZNSaISt4pairIKN8proxygen15HPACKHeaderNameENSt7__cxx114listIjSaIjEEEEED2Ev(ptr noundef nonnull align 1 dereferenceable(1) %ref.tmp3) #3
  %chunks_ = getelementptr inbounds %"class.folly::f14::detail::F14Table", ptr %this1, i32 0, i32 1
  %call = invoke noundef ptr @_ZN5folly3f146detail8F14ChunkIjE13emptyInstanceEv()
          to label %invoke.cont4 unwind label %terminate.lpad

invoke.cont4:                                     ; preds = %invoke.cont
  store ptr %call, ptr %chunks_, align 8
  %sizeAndChunkShiftAndPackedBegin_ = getelementptr inbounds %"class.folly::f14::detail::F14Table", ptr %this1, i32 0, i32 2
  call void @_ZN5folly3f146detail31SizeAndChunkShiftAndPackedBeginINS1_11F14ItemIterIPNS1_8F14ChunkIjEEEELb0EEC2Ev(ptr noundef nonnull align 8 dereferenceable(8) %sizeAndChunkShiftAndPackedBegin_) #3
  ret void

terminate.lpad:                                   ; preds = %invoke.cont, %entry
  %0 = landingpad { ptr, i32 }
          catch ptr null
  %1 = extractvalue { ptr, i32 } %0, 0
  call void @__clang_call_terminate(ptr %1) #13
  unreachable
}

; Function Attrs: mustprogress nounwind uwtable
define linkonce_odr void @_ZNSt12_Vector_baseIN8proxygen11HPACKHeaderESaIS1_EE17_Vector_impl_dataC2Ev(ptr noundef nonnull align 8 dereferenceable(24) %this) unnamed_addr #5 comdat align 2 {
entry:
  %this.addr = alloca ptr, align 8
  store ptr %this, ptr %this.addr, align 8
  %this1 = load ptr, ptr %this.addr, align 8
  %_M_start = getelementptr inbounds %"struct.std::_Vector_base<proxygen::HPACKHeader, std::allocator<proxygen::HPACKHeader>>::_Vector_impl_data", ptr %this1, i32 0, i32 0
  store ptr null, ptr %_M_start, align 8
  %_M_finish = getelementptr inbounds %"struct.std::_Vector_base<proxygen::HPACKHeader, std::allocator<proxygen::HPACKHeader>>::_Vector_impl_data", ptr %this1, i32 0, i32 1
  store ptr null, ptr %_M_finish, align 8
  %_M_end_of_storage = getelementptr inbounds %"struct.std::_Vector_base<proxygen::HPACKHeader, std::allocator<proxygen::HPACKHeader>>::_Vector_impl_data", ptr %this1, i32 0, i32 2
  store ptr null, ptr %_M_end_of_storage, align 8
  ret void
}

; Function Attrs: mustprogress nounwind uwtable
define linkonce_odr void @_ZNSaIN8proxygen11HPACKHeaderEEC2Ev(ptr noundef nonnull align 1 dereferenceable(1) %this) unnamed_addr #5 comdat align 2 {
entry:
  %this.addr = alloca ptr, align 8
  store ptr %this, ptr %this.addr, align 8
  %this1 = load ptr, ptr %this.addr, align 8
  call void @_ZNSt15__new_allocatorIN8proxygen11HPACKHeaderEEC2Ev(ptr noundef nonnull align 1 dereferenceable(1) %this1) #3
  ret void
}

; Function Attrs: mustprogress nounwind uwtable
define linkonce_odr void @_ZN5folly3f146detail11F14BasicMapINS1_21VectorContainerPolicyIN8proxygen15HPACKHeaderNameENSt7__cxx114listIjSaIjEEEvvvSt17integral_constantIbLb1EEEEEC2Ev(ptr noundef nonnull align 8 dereferenceable(24) %this) unnamed_addr #5 comdat align 2 {
entry:
  %this.addr = alloca ptr, align 8
  store ptr %this, ptr %this.addr, align 8
  %this1 = load ptr, ptr %this.addr, align 8
  %table_ = getelementptr inbounds %"class.folly::f14::detail::F14BasicMap", ptr %this1, i32 0, i32 0
  call void @_ZN5folly3f146detail8F14TableINS1_21VectorContainerPolicyIN8proxygen15HPACKHeaderNameENSt7__cxx114listIjSaIjEEEvvvSt17integral_constantIbLb1EEEEEC2Ev(ptr noundef nonnull align 8 dereferenceable(24) %table_) #3
  ret void
}

; Function Attrs: mustprogress nounwind uwtable
define linkonce_odr void @_ZNSt12_Vector_baseIN8proxygen11HPACKHeaderESaIS1_EE12_Vector_implC2Ev(ptr noundef nonnull align 8 dereferenceable(24) %this) unnamed_addr #5 comdat align 2 {
entry:
  %this.addr = alloca ptr, align 8
  store ptr %this, ptr %this.addr, align 8
  %this1 = load ptr, ptr %this.addr, align 8
  call void @_ZNSaIN8proxygen11HPACKHeaderEEC2Ev(ptr noundef nonnull align 1 dereferenceable(1) %this1) #3
  call void @_ZNSt12_Vector_baseIN8proxygen11HPACKHeaderESaIS1_EE17_Vector_impl_dataC2Ev(ptr noundef nonnull align 8 dereferenceable(24) %this1) #3
  ret void
}

; Function Attrs: mustprogress nounwind uwtable
define linkonce_odr void @_ZN5folly3f146detail16F14VectorMapImplIN8proxygen15HPACKHeaderNameENSt7__cxx114listIjSaIjEEENS_23HeterogeneousAccessHashIS4_vEENS_26HeterogeneousAccessEqualToIS4_vEESaISt4pairIKS4_S8_EESt17integral_constantIbLb1EEEC2Ev(ptr noundef nonnull align 8 dereferenceable(24) %this) unnamed_addr #5 comdat align 2 {
entry:
  %this.addr = alloca ptr, align 8
  store ptr %this, ptr %this.addr, align 8
  %this1 = load ptr, ptr %this.addr, align 8
  call void @_ZN5folly3f146detail11F14BasicMapINS1_21VectorContainerPolicyIN8proxygen15HPACKHeaderNameENSt7__cxx114listIjSaIjEEEvvvSt17integral_constantIbLb1EEEEEC2Ev(ptr noundef nonnull align 8 dereferenceable(24) %this1) #3
  ret void
}

; Function Attrs: mustprogress nounwind uwtable
define linkonce_odr void @_ZNSt12_Vector_baseIN8proxygen11HPACKHeaderESaIS1_EEC2Ev(ptr noundef nonnull align 8 dereferenceable(24) %this) unnamed_addr #5 comdat align 2 {
entry:
  %this.addr = alloca ptr, align 8
  store ptr %this, ptr %this.addr, align 8
  %this1 = load ptr, ptr %this.addr, align 8
  %_M_impl = getelementptr inbounds %"struct.std::_Vector_base", ptr %this1, i32 0, i32 0
  call void @_ZNSt12_Vector_baseIN8proxygen11HPACKHeaderESaIS1_EE12_Vector_implC2Ev(ptr noundef nonnull align 8 dereferenceable(24) %_M_impl) #3
  ret void
}

; Function Attrs: mustprogress nounwind uwtable
define linkonce_odr void @_ZN5folly10F14FastMapIN8proxygen15HPACKHeaderNameENSt7__cxx114listIjSaIjEEENS_23HeterogeneousAccessHashIS2_vEENS_26HeterogeneousAccessEqualToIS2_vEESaISt4pairIKS2_S6_EEEC2Ev(ptr noundef nonnull align 8 dereferenceable(24) %this) unnamed_addr #5 comdat align 2 {
entry:
  %this.addr = alloca ptr, align 8
  store ptr %this, ptr %this.addr, align 8
  %this1 = load ptr, ptr %this.addr, align 8
  call void @_ZN5folly3f146detail16F14VectorMapImplIN8proxygen15HPACKHeaderNameENSt7__cxx114listIjSaIjEEENS_23HeterogeneousAccessHashIS4_vEENS_26HeterogeneousAccessEqualToIS4_vEESaISt4pairIKS4_S8_EESt17integral_constantIbLb1EEEC2Ev(ptr noundef nonnull align 8 dereferenceable(24) %this1) #3
  ret void
}

; Function Attrs: mustprogress nounwind uwtable
define linkonce_odr void @_ZNSt6vectorIN8proxygen11HPACKHeaderESaIS1_EEC2Ev(ptr noundef nonnull align 8 dereferenceable(24) %this) unnamed_addr #5 comdat align 2 {
entry:
  %this.addr = alloca ptr, align 8
  store ptr %this, ptr %this.addr, align 8
  %this1 = load ptr, ptr %this.addr, align 8
  call void @_ZNSt12_Vector_baseIN8proxygen11HPACKHeaderESaIS1_EEC2Ev(ptr noundef nonnull align 8 dereferenceable(24) %this1) #3
  ret void
}

; Function Attrs: mustprogress uwtable
define linkonce_odr void @_ZN8proxygen11HeaderTableC2Ej(ptr noundef nonnull align 8 dereferenceable(80) %this, i32 noundef %capacityVal) unnamed_addr #4 comdat align 2 personality ptr @__gxx_personality_v0 {
entry:
  %this.addr = alloca ptr, align 8
  %capacityVal.addr = alloca i32, align 4
  %exn.slot = alloca ptr, align 8
  %ehselector.slot = alloca i32, align 4
  store ptr %this, ptr %this.addr, align 8
  store i32 %capacityVal, ptr %capacityVal.addr, align 4
  %this1 = load ptr, ptr %this.addr, align 8
  store ptr getelementptr inbounds ({ [11 x ptr] }, ptr @_ZTVN8proxygen11HeaderTableE, i32 0, i32 0, i32 2), ptr %this1, align 8
  %capacity_ = getelementptr inbounds %"class.proxygen::HeaderTable", ptr %this1, i32 0, i32 1
  store i32 0, ptr %capacity_, align 8
  %bytes_ = getelementptr inbounds %"class.proxygen::HeaderTable", ptr %this1, i32 0, i32 2
  store i32 0, ptr %bytes_, align 4
  %table_ = getelementptr inbounds %"class.proxygen::HeaderTable", ptr %this1, i32 0, i32 3
  call void @_ZNSt6vectorIN8proxygen11HPACKHeaderESaIS1_EEC2Ev(ptr noundef nonnull align 8 dereferenceable(24) %table_) #3
  %size_ = getelementptr inbounds %"class.proxygen::HeaderTable", ptr %this1, i32 0, i32 4
  store i32 0, ptr %size_, align 8
  %head_ = getelementptr inbounds %"class.proxygen::HeaderTable", ptr %this1, i32 0, i32 5
  store i32 0, ptr %head_, align 4
  %insertCount_ = getelementptr inbounds %"class.proxygen::HeaderTable", ptr %this1, i32 0, i32 6
  store i32 0, ptr %insertCount_, align 8
  %indexNames_ = getelementptr inbounds %"class.proxygen::HeaderTable", ptr %this1, i32 0, i32 7
  store i8 1, ptr %indexNames_, align 4
  %names_ = getelementptr inbounds %"class.proxygen::HeaderTable", ptr %this1, i32 0, i32 8
  call void @_ZN5folly10F14FastMapIN8proxygen15HPACKHeaderNameENSt7__cxx114listIjSaIjEEENS_23HeterogeneousAccessHashIS2_vEENS_26HeterogeneousAccessEqualToIS2_vEESaISt4pairIKS2_S6_EEEC2Ev(ptr noundef nonnull align 8 dereferenceable(24) %names_) #3
  %0 = load i32, ptr %capacityVal.addr, align 4
  invoke void @_ZN8proxygen11HeaderTable4initEj(ptr noundef nonnull align 8 dereferenceable(80) %this1, i32 noundef %0)
          to label %invoke.cont unwind label %lpad

invoke.cont:                                      ; preds = %entry
  ret void

lpad:                                             ; preds = %entry
  %1 = landingpad { ptr, i32 }
          cleanup
  %2 = extractvalue { ptr, i32 } %1, 0
  store ptr %2, ptr %exn.slot, align 8
  %3 = extractvalue { ptr, i32 } %1, 1
  store i32 %3, ptr %ehselector.slot, align 4
  call void @_ZN5folly10F14FastMapIN8proxygen15HPACKHeaderNameENSt7__cxx114listIjSaIjEEENS_23HeterogeneousAccessHashIS2_vEENS_26HeterogeneousAccessEqualToIS2_vEESaISt4pairIKS2_S6_EEED2Ev(ptr noundef nonnull align 8 dereferenceable(24) %names_) #3
  call void @_ZNSt6vectorIN8proxygen11HPACKHeaderESaIS1_EED2Ev(ptr noundef nonnull align 8 dereferenceable(24) %table_) #3
  br label %eh.resume

eh.resume:                                        ; preds = %lpad
  %exn = load ptr, ptr %exn.slot, align 8
  %sel = load i32, ptr %ehselector.slot, align 4
  %lpad.val = insertvalue { ptr, i32 } poison, ptr %exn, 0
  %lpad.val2 = insertvalue { ptr, i32 } %lpad.val, i32 %sel, 1
  resume { ptr, i32 } %lpad.val2
}

; Function Attrs: mustprogress uwtable
define void @_ZN8proxygen12HPACKContextC2Ej(ptr noundef nonnull align 8 dereferenceable(84) %this, i32 noundef %tableSize) unnamed_addr #4 align 2 {
entry:
  %this.addr = alloca ptr, align 8
  %tableSize.addr = alloca i32, align 4
  store ptr %this, ptr %this.addr, align 8
  store i32 %tableSize, ptr %tableSize.addr, align 4
  %this1 = load ptr, ptr %this.addr, align 8
  %table_ = getelementptr inbounds %"class.proxygen::HPACKContext", ptr %this1, i32 0, i32 0
  %0 = load i32, ptr %tableSize.addr, align 4
  call void @_ZN8proxygen11HeaderTableC2Ej(ptr noundef nonnull align 8 dereferenceable(80) %table_, i32 noundef %0)
  %staticRefs_ = getelementptr inbounds %"class.proxygen::HPACKContext", ptr %this1, i32 0, i32 1
  store i32 0, ptr %staticRefs_, align 8
  ret void
}