; Function Attrs: mustprogress uwtable
define void @_ZN8proxygen12HPACKContextC2Ej(ptr noundef nonnull align 8 dereferenceable(84) %this, i32 noundef %tableSize) unnamed_addr #3 align 2 personality ptr @__gxx_personality_v0 {
entry:
  store ptr getelementptr inbounds ({ [11 x ptr] }, ptr @_ZTVN8proxygen11HeaderTableE, i64 0, i32 0, i64 2), ptr %this, align 8
  %capacity_.i = getelementptr inbounds i8, ptr %this, i64 8
  %indexNames_.i = getelementptr inbounds i8, ptr %this, i64 52
  tail call void @llvm.memset.p0.i64(ptr noundef nonnull align 8 dereferenceable(44) %capacity_.i, i8 0, i64 44, i1 false)
  store i8 1, ptr %indexNames_.i, align 4
  %names_.i = getelementptr inbounds i8, ptr %this, i64 56
  store ptr null, ptr %names_.i, align 8
  %chunks_.i.i.i.i.i = getelementptr inbounds i8, ptr %this, i64 64
  store ptr @_ZN5folly3f146detail15kEmptyTagVectorE, ptr %chunks_.i.i.i.i.i, align 8
  %sizeAndChunkShiftAndPackedBegin_.i.i.i.i.i = getelementptr inbounds i8, ptr %this, i64 72
  store i64 0, ptr %sizeAndChunkShiftAndPackedBegin_.i.i.i.i.i, align 8
  invoke void @_ZN8proxygen11HeaderTable4initEj(ptr noundef nonnull align 8 dereferenceable(80) %this, i32 noundef %tableSize)
          to label %_ZN8proxygen11HeaderTableC2Ej.exit unwind label %lpad.i

lpad.i:                                           ; preds = %entry
  %0 = landingpad { ptr, i32 }
          cleanup
  %table_.i = getelementptr inbounds i8, ptr %this, i64 16
  tail call void @_ZN5folly10F14FastMapIN8proxygen15HPACKHeaderNameENSt7__cxx114listIjSaIjEEENS_23HeterogeneousAccessHashIS2_vEENS_26HeterogeneousAccessEqualToIS2_vEESaISt4pairIKS2_S6_EEED2Ev(ptr noundef nonnull align 8 dereferenceable(24) %names_.i) #12
  tail call void @_ZNSt6vectorIN8proxygen11HPACKHeaderESaIS1_EED2Ev(ptr noundef nonnull align 8 dereferenceable(24) %table_.i) #12
  resume { ptr, i32 } %0

_ZN8proxygen11HeaderTableC2Ej.exit:               ; preds = %entry
  %staticRefs_ = getelementptr inbounds i8, ptr %this, i64 80
  store i32 0, ptr %staticRefs_, align 8
  ret void
}